Certificate:
    Data:
        Version: 3 (0x2)
        Serial Number:
            6e:9d:c6:f4:5f:11:ad:45:80:51:60:bf:e6:e3:10:f7
        Signature Algorithm: sha256WithRSAEncryption
        Issuer: C=US, ST=California, L=San Francisco, O=CAMADA SA, OU=CAMADA SA, CN=camada.net/emailAddress=me@camada.net
        Validity
            Not Before: Nov 20 20:31:34 2024 GMT
            Not After : Feb 23 20:31:34 2027 GMT
        Subject: C=BR, ST=PR, L=Guarapuava, O=Backend NodeJs, OU=Backend NodeJs, CN=*.dev.myclass.com/emailAddress=me@nodejs.com
        Subject Public Key Info:
            Public Key Algorithm: rsaEncryption
                Public-Key: (2048 bit)
                Modulus:
                    00:93:b2:ad:c1:b2:ae:37:01:d9:36:0e:f3:32:c5:
                    d1:a1:53:83:9c:03:08:47:e1:e7:64:de:ea:66:34:
                    96:6e:0f:d7:ac:9c:91:0b:2b:28:96:cf:95:30:34:
                    6e:20:a9:4d:f4:f6:85:60:76:1b:a3:9f:d6:32:87:
                    ce:84:79:6b:df:ac:55:47:45:6c:79:59:bc:be:42:
                    93:cb:c3:84:d8:38:3b:ea:90:b4:91:15:ab:55:ce:
                    ce:d1:a0:50:fb:e7:21:ad:49:ea:f8:74:09:2e:45:
                    ae:72:54:e7:50:dc:dd:e3:01:3e:e0:1c:6a:e5:da:
                    c5:fc:43:98:f0:0d:b1:44:8a:cc:12:88:cc:fc:c9:
                    8b:a0:89:83:89:45:ed:8d:b5:90:83:e8:84:ff:13:
                    95:b8:ff:7d:7d:72:80:37:58:2c:83:00:e4:36:69:
                    e4:20:36:24:0d:b4:65:15:0c:64:d2:ad:04:fd:78:
                    49:ed:32:50:1a:29:64:22:ea:15:bf:14:7d:04:ca:
                    de:d3:29:d9:56:1a:7f:e0:a6:c9:3c:16:c3:c5:8d:
                    f4:1d:a4:7c:51:a4:05:01:a6:60:c9:ab:ca:91:b5:
                    f8:fa:dc:ba:42:cf:ce:4d:30:ab:b4:34:46:d7:d5:
                    ef:6d:e5:b5:3c:0e:e1:06:88:78:e1:9c:d9:af:9b:
                    1e:63
                Exponent: 65537 (0x10001)
        X509v3 extensions:
            X509v3 Basic Constraints: 
                CA:FALSE
            X509v3 Subject Key Identifier: 
                95:7F:B4:DF:A6:81:1F:4B:2B:E4:9C:D3:CD:85:02:E7:67:1B:E8:19
            X509v3 Authority Key Identifier: 
                keyid:64:F0:CC:F9:4E:D1:7A:A5:D5:42:AF:8B:27:E2:97:64:97:68:AD:B8
                DirName:/C=US/ST=California/L=San Francisco/O=CAMADA SA/OU=CAMADA SA/CN=camada.net/emailAddress=me@camada.net
                serial:1E:6D:ED:36:7D:A6:F8:F4:36:E4:1C:D7:14:84:9F:7C:E5:26:08:92
            X509v3 Extended Key Usage: 
                TLS Web Server Authentication
            X509v3 Key Usage: 
                Digital Signature, Key Encipherment
            X509v3 Subject Alternative Name: 
                DNS:*.dev.myclass.com
    Signature Algorithm: sha256WithRSAEncryption
    Signature Value:
        76:47:9f:6a:a1:e1:64:8e:f1:b9:39:7c:fc:f3:14:b0:38:c5:
        88:51:05:2f:ec:ea:98:44:e8:b5:21:81:49:6a:d0:6e:06:d3:
        2a:ad:99:a5:cc:f7:3c:54:39:06:a3:cb:be:b4:00:cb:e1:d1:
        7f:08:af:bf:03:d7:fb:64:c6:c7:7e:b2:61:ca:c3:46:c6:b9:
        a8:b2:79:b2:b1:23:8b:d3:89:c1:f9:12:16:07:7a:82:29:74:
        ef:ef:16:52:c2:af:04:43:de:2f:74:7a:e9:56:07:50:75:45:
        94:9f:35:1b:05:4b:54:3b:b6:ac:11:59:b7:b9:c7:19:a0:ef:
        be:d2:aa:a4:d3:fe:82:73:a4:ff:e4:53:76:fa:b0:a7:7d:7a:
        26:67:48:36:5c:ed:33:62:6e:b9:0e:ed:66:8b:36:32:26:19:
        3f:83:8c:e9:1e:08:a2:e9:96:31:58:c7:a4:c7:98:6f:ec:37:
        51:a1:be:39:8a:bb:6a:3c:6c:6c:48:a7:0d:8b:38:ec:46:49:
        44:f0:a7:25:16:b1:fd:d4:60:34:46:a6:e1:2f:2c:af:7e:9a:
        c3:20:24:13:21:0a:b1:fe:ab:b4:fb:e7:4c:0b:88:98:1b:11:
        c5:36:67:61:d3:8a:1c:3a:b5:58:6d:ed:d5:06:d5:1a:af:82:
        79:e8:47:f0
-----BEGIN CERTIFICATE-----
MIIFBDCCA+ygAwIBAgIQbp3G9F8RrUWAUWC/5uMQ9zANBgkqhkiG9w0BAQsFADCB
lTELMAkGA1UEBhMCVVMxEzARBgNVBAgMCkNhbGlmb3JuaWExFjAUBgNVBAcMDVNh
biBGcmFuY2lzY28xEjAQBgNVBAoMCUNBTUFEQSBTQTESMBAGA1UECwwJQ0FNQURB
IFNBMRMwEQYDVQQDDApjYW1hZGEubmV0MRwwGgYJKoZIhvcNAQkBFg1tZUBjYW1h
ZGEubmV0MB4XDTI0MTEyMDIwMzEzNFoXDTI3MDIyMzIwMzEzNFowgZsxCzAJBgNV
BAYTAkJSMQswCQYDVQQIDAJQUjETMBEGA1UEBwwKR3VhcmFwdWF2YTEXMBUGA1UE
CgwOQmFja2VuZCBOb2RlSnMxFzAVBgNVBAsMDkJhY2tlbmQgTm9kZUpzMRowGAYD
VQQDDBEqLmRldi5teWNsYXNzLmNvbTEcMBoGCSqGSIb3DQEJARYNbWVAbm9kZWpz
LmNvbTCCASIwDQYJKoZIhvcNAQEBBQADggEPADCCAQoCggEBAJOyrcGyrjcB2TYO
8zLF0aFTg5wDCEfh52Te6mY0lm4P16yckQsrKJbPlTA0biCpTfT2hWB2G6Of1jKH
zoR5a9+sVUdFbHlZvL5Ck8vDhNg4O+qQtJEVq1XOztGgUPvnIa1J6vh0CS5FrnJU
51Dc3eMBPuAcauXaxfxDmPANsUSKzBKIzPzJi6CJg4lF7Y21kIPohP8Tlbj/fX1y
gDdYLIMA5DZp5CA2JA20ZRUMZNKtBP14Se0yUBopZCLqFb8UfQTK3tMp2VYaf+Cm
yTwWw8WN9B2kfFGkBQGmYMmrypG1+PrcukLPzk0wq7Q0RtfV723ltTwO4QaIeOGc
2a+bHmMCAwEAAaOCAUYwggFCMAkGA1UdEwQCMAAwHQYDVR0OBBYEFJV/tN+mgR9L
K+Sc082FAudnG+gZMIHVBgNVHSMEgc0wgcqAFGTwzPlO0Xql1UKviyfil2SXaK24
oYGbpIGYMIGVMQswCQYDVQQGEwJVUzETMBEGA1UECAwKQ2FsaWZvcm5pYTEWMBQG
A1UEBwwNU2FuIEZyYW5jaXNjbzESMBAGA1UECgwJQ0FNQURBIFNBMRIwEAYDVQQL
DAlDQU1BREEgU0ExEzARBgNVBAMMCmNhbWFkYS5uZXQxHDAaBgkqhkiG9w0BCQEW
DW1lQGNhbWFkYS5uZXSCFB5t7TZ9pvj0NuQc1xSEn3zlJgiSMBMGA1UdJQQMMAoG
CCsGAQUFBwMBMAsGA1UdDwQEAwIFoDAcBgNVHREEFTATghEqLmRldi5teWNsYXNz
LmNvbTANBgkqhkiG9w0BAQsFAAOCAQEAdkefaqHhZI7xuTl8/PMUsDjFiFEFL+zq
mETotSGBSWrQbgbTKq2Zpcz3PFQ5BqPLvrQAy+HRfwivvwPX+2TGx36yYcrDRsa5
qLJ5srEji9OJwfkSFgd6gil07+8WUsKvBEPeL3R66VYHUHVFlJ81GwVLVDu2rBFZ
t7nHGaDvvtKqpNP+gnOk/+RTdvqwp316JmdINlztM2JuuQ7tZos2MiYZP4OM6R4I
oumWMVjHpMeYb+w3UaG+OYq7ajxsbEinDYs47EZJRPCnJRax/dRgNEam4S8sr36a
wyAkEyEKsf6rtPvnTAuImBsRxTZnYdOKHDq1WG3t1QbVGq+CeehH8A==
-----END CERTIFICATE-----
