Certificate:
    Data:
        Version: 3 (0x2)
        Serial Number:
            ba:b3:da:9e:e4:2d:b6:4a:4c:15:1d:27:ed:93:48:0c
        Signature Algorithm: sha256WithRSAEncryption
        Issuer: C=US, ST=California, L=San Francisco, O=CAMADA SA, OU=CAMADA SA, CN=camada.net/emailAddress=me@camada.net
        Validity
            Not Before: Nov 25 17:21:43 2024 GMT
            Not After : Feb 28 17:21:43 2027 GMT
        Subject: C=BR, ST=PR, L=Guarapuava, O=NodeJs backend, OU=Backend NodeJs, CN=dev.myclass.com/emailAddress=me@myclass.com
        Subject Public Key Info:
            Public Key Algorithm: rsaEncryption
                Public-Key: (2048 bit)
                Modulus:
                    00:9f:6a:e0:ca:c1:47:09:7d:b5:5a:4c:14:c6:d0:
                    dc:d5:f2:42:6e:a0:a4:cd:f5:67:72:e7:9a:08:39:
                    0e:ac:e3:0c:ff:23:8b:ba:42:89:df:83:4a:56:09:
                    9a:fa:f3:23:d7:87:cb:85:b6:21:41:8d:5c:75:34:
                    7a:f9:c1:9e:7f:4e:93:c1:77:01:a4:0c:f2:ef:36:
                    c2:87:40:39:fe:e1:60:48:a4:0c:2b:5a:54:4e:4f:
                    08:68:bb:d7:71:2f:5d:db:1e:dd:77:ca:89:b7:02:
                    51:04:6e:26:98:1c:b9:03:a5:e3:7a:72:35:6d:3b:
                    8d:eb:16:10:68:57:ef:af:41:5b:c5:a0:ec:dc:3f:
                    33:1a:72:35:09:c4:e3:3d:d2:d6:6e:1a:1d:d0:65:
                    63:fc:bc:8b:24:cc:c4:3b:39:a9:ca:34:bb:d1:53:
                    9f:fb:cb:0d:28:25:17:38:ef:a8:4a:b9:5b:37:79:
                    60:ef:c7:99:8a:f1:ff:09:20:ba:66:ba:ee:54:54:
                    22:e3:2e:4b:bc:64:26:dd:aa:55:97:f4:2c:8c:92:
                    7e:03:e7:35:78:e8:50:09:a3:a4:a0:33:52:27:0e:
                    a3:a5:5d:fa:d9:a2:4f:69:50:58:1d:d2:02:c6:84:
                    3e:27:8e:70:82:79:f3:31:fd:4d:f1:de:53:c0:c2:
                    82:b1
                Exponent: 65537 (0x10001)
        X509v3 extensions:
            X509v3 Basic Constraints: 
                CA:FALSE
            X509v3 Subject Key Identifier: 
                67:AD:67:DC:D4:AE:18:7D:F6:7E:90:FA:58:56:E1:F6:13:1F:7B:57
            X509v3 Authority Key Identifier: 
                keyid:BC:BE:8A:F5:21:69:A9:F1:53:DD:F0:77:B1:08:3B:48:89:CC:22:C3
                DirName:/C=US/ST=California/L=San Francisco/O=CAMADA SA/OU=CAMADA SA/CN=camada.net/emailAddress=me@camada.net
                serial:69:7E:BF:F4:2B:C8:2D:BB:AF:6A:F1:7C:56:85:CD:3F:7A:C8:05:C2
            X509v3 Extended Key Usage: 
                TLS Web Server Authentication
            X509v3 Key Usage: 
                Digital Signature, Key Encipherment
            X509v3 Subject Alternative Name: 
                DNS:dev.myclass.com
    Signature Algorithm: sha256WithRSAEncryption
    Signature Value:
        69:03:19:95:54:a6:88:e1:d8:2a:6b:a7:e7:ec:52:dd:37:a7:
        7b:2e:19:90:8f:dd:57:da:ff:e3:0b:7d:1d:51:54:f0:00:61:
        e6:39:6b:f3:60:1d:f7:da:dc:4c:e9:84:b4:10:6b:0e:fb:09:
        0f:e5:52:60:4a:f6:1e:a8:0a:ac:a0:e0:85:ee:c2:d5:ca:8e:
        9f:2c:ab:fc:fb:4d:2a:94:0e:19:a5:91:34:20:96:de:50:39:
        25:83:b4:21:63:4c:d4:63:6b:42:ad:c1:57:73:78:6f:44:8d:
        cc:87:d5:99:f3:db:76:22:fb:22:a3:c9:52:7a:03:e2:af:2d:
        da:8e:8b:39:56:0b:94:b4:f7:bd:99:1b:40:59:9c:92:b0:6b:
        6e:4e:56:61:88:8c:75:42:07:e2:07:2d:27:ba:40:64:d0:a7:
        4e:bd:0b:db:0f:9b:43:df:97:32:43:7f:e4:6c:b7:8e:d2:90:
        51:3c:ea:c6:b3:42:ae:39:8c:8b:2e:10:db:91:04:aa:0a:ab:
        e6:80:07:33:c6:4e:35:3d:f8:7a:b1:0c:df:05:93:0e:e5:b1:
        b4:8c:90:c3:10:6d:62:a0:bb:7e:de:70:da:a5:79:6b:41:91:
        3e:d8:f8:81:d0:dc:90:2f:92:f3:82:04:8c:c0:32:f4:4d:d2:
        24:2e:25:a4
-----BEGIN CERTIFICATE-----
MIIFAjCCA+qgAwIBAgIRALqz2p7kLbZKTBUdJ+2TSAwwDQYJKoZIhvcNAQELBQAw
gZUxCzAJBgNVBAYTAlVTMRMwEQYDVQQIDApDYWxpZm9ybmlhMRYwFAYDVQQHDA1T
YW4gRnJhbmNpc2NvMRIwEAYDVQQKDAlDQU1BREEgU0ExEjAQBgNVBAsMCUNBTUFE
QSBTQTETMBEGA1UEAwwKY2FtYWRhLm5ldDEcMBoGCSqGSIb3DQEJARYNbWVAY2Ft
YWRhLm5ldDAeFw0yNDExMjUxNzIxNDNaFw0yNzAyMjgxNzIxNDNaMIGaMQswCQYD
VQQGEwJCUjELMAkGA1UECAwCUFIxEzARBgNVBAcMCkd1YXJhcHVhdmExFzAVBgNV
BAoMDk5vZGVKcyBiYWNrZW5kMRcwFQYDVQQLDA5CYWNrZW5kIE5vZGVKczEYMBYG
A1UEAwwPZGV2Lm15Y2xhc3MuY29tMR0wGwYJKoZIhvcNAQkBFg5tZUBteWNsYXNz
LmNvbTCCASIwDQYJKoZIhvcNAQEBBQADggEPADCCAQoCggEBAJ9q4MrBRwl9tVpM
FMbQ3NXyQm6gpM31Z3Lnmgg5DqzjDP8ji7pCid+DSlYJmvrzI9eHy4W2IUGNXHU0
evnBnn9Ok8F3AaQM8u82wodAOf7hYEikDCtaVE5PCGi713EvXdse3XfKibcCUQRu
JpgcuQOl43pyNW07jesWEGhX769BW8Wg7Nw/MxpyNQnE4z3S1m4aHdBlY/y8iyTM
xDs5qco0u9FTn/vLDSglFzjvqEq5Wzd5YO/HmYrx/wkguma67lRUIuMuS7xkJt2q
VZf0LIySfgPnNXjoUAmjpKAzUicOo6Vd+tmiT2lQWB3SAsaEPieOcIJ58zH9TfHe
U8DCgrECAwEAAaOCAUQwggFAMAkGA1UdEwQCMAAwHQYDVR0OBBYEFGetZ9zUrhh9
9n6Q+lhW4fYTH3tXMIHVBgNVHSMEgc0wgcqAFLy+ivUhaanxU93wd7EIO0iJzCLD
oYGbpIGYMIGVMQswCQYDVQQGEwJVUzETMBEGA1UECAwKQ2FsaWZvcm5pYTEWMBQG
A1UEBwwNU2FuIEZyYW5jaXNjbzESMBAGA1UECgwJQ0FNQURBIFNBMRIwEAYDVQQL
DAlDQU1BREEgU0ExEzARBgNVBAMMCmNhbWFkYS5uZXQxHDAaBgkqhkiG9w0BCQEW
DW1lQGNhbWFkYS5uZXSCFGl+v/QryC27r2rxfFaFzT96yAXCMBMGA1UdJQQMMAoG
CCsGAQUFBwMBMAsGA1UdDwQEAwIFoDAaBgNVHREEEzARgg9kZXYubXljbGFzcy5j
b20wDQYJKoZIhvcNAQELBQADggEBAGkDGZVUpojh2Cprp+fsUt03p3suGZCP3Vfa
/+MLfR1RVPAAYeY5a/NgHffa3EzphLQQaw77CQ/lUmBK9h6oCqyg4IXuwtXKjp8s
q/z7TSqUDhmlkTQglt5QOSWDtCFjTNRja0KtwVdzeG9EjcyH1Znz23Yi+yKjyVJ6
A+KvLdqOizlWC5S0972ZG0BZnJKwa25OVmGIjHVCB+IHLSe6QGTQp069C9sPm0Pf
lzJDf+Rst47SkFE86sazQq45jIsuENuRBKoKq+aABzPGTjU9+HqxDN8Fkw7lsbSM
kMMQbWKgu37ecNqleWtBkT7Y+IHQ3JAvkvOCBIzAMvRN0iQuJaQ=
-----END CERTIFICATE-----
